target datalayout = "e-m:e-p270:32:32-p271:32:32-p272:64:64-i64:64-i128:128-f80:128-n8:16:32:64-S128"
target triple = "x86_64-pc-linux-gnu"

%struct.AVFilterGraphSegment = type { ptr, ptr, i64, ptr }
%struct.AVFilterChain = type { ptr, i64 }
%struct.AVFilterParams = type { ptr, ptr, ptr, ptr, ptr, i32, ptr, i32 }
%struct.AVFilterPadParams = type { ptr }

; Function Attrs: nounwind uwtable
define internal void @pad_params_free(ptr noundef %0) #0 {
  %2 = alloca ptr, align 8
  %3 = alloca ptr, align 8
  %4 = alloca i32, align 4
  store ptr %0, ptr %2, align 8, !tbaa !129
  call void @llvm.lifetime.start.p0(i64 8, ptr %3) #7
  %5 = load ptr, ptr %2, align 8, !tbaa !129
  %6 = load ptr, ptr %5, align 8, !tbaa !99
  store ptr %6, ptr %3, align 8, !tbaa !99
  %7 = load ptr, ptr %3, align 8, !tbaa !99
  %8 = icmp ne ptr %7, null
  br i1 %8, label %10, label %9

9:                                                ; preds = %1
  store i32 1, ptr %4, align 4
  br label %14

10:                                               ; preds = %1
  %11 = load ptr, ptr %3, align 8, !tbaa !99
  %12 = getelementptr inbounds nuw %struct.AVFilterPadParams, ptr %11, i32 0, i32 0
  call void @av_freep(ptr noundef %12)
  %13 = load ptr, ptr %2, align 8, !tbaa !129
  call void @av_freep(ptr noundef %13)
  store i32 0, ptr %4, align 4
  br label %14

14:                                               ; preds = %10, %9
  call void @llvm.lifetime.end.p0(i64 8, ptr %3) #7
  %15 = load i32, ptr %4, align 4
  switch i32 %15, label %17 [
    i32 0, label %16
    i32 1, label %16
  ]

16:                                               ; preds = %14, %14
  ret void

17:                                               ; preds = %14
  unreachable
}

; Function Attrs: nounwind uwtable
define internal void @filter_params_free(ptr noundef %0) #0 {
  %2 = alloca ptr, align 8
  %3 = alloca ptr, align 8
  %4 = alloca i32, align 4
  %5 = alloca i32, align 4
  %6 = alloca i32, align 4
  store ptr %0, ptr %2, align 8, !tbaa !133
  call void @llvm.lifetime.start.p0(i64 8, ptr %3) #7
  %7 = load ptr, ptr %2, align 8, !tbaa !133
  %8 = load ptr, ptr %7, align 8, !tbaa !72
  store ptr %8, ptr %3, align 8, !tbaa !72
  %9 = load ptr, ptr %3, align 8, !tbaa !72
  %10 = icmp ne ptr %9, null
  br i1 %10, label %12, label %11

11:                                               ; preds = %1
  store i32 1, ptr %4, align 4
  br label %60

12:                                               ; preds = %1
  call void @llvm.lifetime.start.p0(i64 4, ptr %5) #7
  store i32 0, ptr %5, align 4, !tbaa !22
  br label %13

13:                                               ; preds = %27, %12
  %14 = load i32, ptr %5, align 4, !tbaa !22
  %15 = load ptr, ptr %3, align 8, !tbaa !72
  %16 = getelementptr inbounds nuw %struct.AVFilterParams, ptr %15, i32 0, i32 5
  %17 = load i32, ptr %16, align 8, !tbaa !97
  %18 = icmp ult i32 %14, %17
  br i1 %18, label %20, label %19

19:                                               ; preds = %13
  store i32 2, ptr %4, align 4
  call void @llvm.lifetime.end.p0(i64 4, ptr %5) #7
  br label %30

20:                                               ; preds = %13
  %21 = load ptr, ptr %3, align 8, !tbaa !72
  %22 = getelementptr inbounds nuw %struct.AVFilterParams, ptr %21, i32 0, i32 4
  %23 = load ptr, ptr %22, align 8, !tbaa !98
  %24 = load i32, ptr %5, align 4, !tbaa !22
  %25 = zext i32 %24 to i64
  %26 = getelementptr inbounds nuw ptr, ptr %23, i64 %25
  call void @pad_params_free(ptr noundef %26)
  br label %27

27:                                               ; preds = %20
  %28 = load i32, ptr %5, align 4, !tbaa !22
  %29 = add i32 %28, 1
  store i32 %29, ptr %5, align 4, !tbaa !22
  br label %13, !llvm.loop !134

30:                                               ; preds = %19
  %31 = load ptr, ptr %3, align 8, !tbaa !72
  %32 = getelementptr inbounds nuw %struct.AVFilterParams, ptr %31, i32 0, i32 4
  call void @av_freep(ptr noundef %32)
  call void @llvm.lifetime.start.p0(i64 4, ptr %6) #7
  store i32 0, ptr %6, align 4, !tbaa !22
  br label %33

33:                                               ; preds = %47, %30
  %34 = load i32, ptr %6, align 4, !tbaa !22
  %35 = load ptr, ptr %3, align 8, !tbaa !72
  %36 = getelementptr inbounds nuw %struct.AVFilterParams, ptr %35, i32 0, i32 7
  %37 = load i32, ptr %36, align 8, !tbaa !108
  %38 = icmp ult i32 %34, %37
  br i1 %38, label %40, label %39

39:                                               ; preds = %33
  store i32 5, ptr %4, align 4
  call void @llvm.lifetime.end.p0(i64 4, ptr %6) #7
  br label %50

40:                                               ; preds = %33
  %41 = load ptr, ptr %3, align 8, !tbaa !72
  %42 = getelementptr inbounds nuw %struct.AVFilterParams, ptr %41, i32 0, i32 6
  %43 = load ptr, ptr %42, align 8, !tbaa !109
  %44 = load i32, ptr %6, align 4, !tbaa !22
  %45 = zext i32 %44 to i64
  %46 = getelementptr inbounds nuw ptr, ptr %43, i64 %45
  call void @pad_params_free(ptr noundef %46)
  br label %47

47:                                               ; preds = %40
  %48 = load i32, ptr %6, align 4, !tbaa !22
  %49 = add i32 %48, 1
  store i32 %49, ptr %6, align 4, !tbaa !22
  br label %33, !llvm.loop !135

50:                                               ; preds = %39
  %51 = load ptr, ptr %3, align 8, !tbaa !72
  %52 = getelementptr inbounds nuw %struct.AVFilterParams, ptr %51, i32 0, i32 6
  call void @av_freep(ptr noundef %52)
  %53 = load ptr, ptr %3, align 8, !tbaa !72
  %54 = getelementptr inbounds nuw %struct.AVFilterParams, ptr %53, i32 0, i32 3
  call void @av_dict_free(ptr noundef %54)
  %55 = load ptr, ptr %3, align 8, !tbaa !72
  %56 = getelementptr inbounds nuw %struct.AVFilterParams, ptr %55, i32 0, i32 1
  call void @av_freep(ptr noundef %56)
  %57 = load ptr, ptr %3, align 8, !tbaa !72
  %58 = getelementptr inbounds nuw %struct.AVFilterParams, ptr %57, i32 0, i32 2
  call void @av_freep(ptr noundef %58)
  %59 = load ptr, ptr %2, align 8, !tbaa !133
  call void @av_freep(ptr noundef %59)
  store i32 0, ptr %4, align 4
  br label %60

60:                                               ; preds = %50, %11
  call void @llvm.lifetime.end.p0(i64 8, ptr %3) #7
  %61 = load i32, ptr %4, align 4
  switch i32 %61, label %63 [
    i32 0, label %62
    i32 1, label %62
  ]

62:                                               ; preds = %60, %60
  ret void

63:                                               ; preds = %60
  unreachable
}

; Function Attrs: nounwind uwtable
define internal void @chain_free(ptr noundef %0) #0 {
  %2 = alloca ptr, align 8
  %3 = alloca ptr, align 8
  %4 = alloca i32, align 4
  %5 = alloca i64, align 8
  store ptr %0, ptr %2, align 8, !tbaa !64
  call void @llvm.lifetime.start.p0(i64 8, ptr %3) #7
  %6 = load ptr, ptr %2, align 8, !tbaa !64
  %7 = load ptr, ptr %6, align 8, !tbaa !39
  store ptr %7, ptr %3, align 8, !tbaa !39
  %8 = load ptr, ptr %3, align 8, !tbaa !39
  %9 = icmp ne ptr %8, null
  br i1 %9, label %11, label %10

10:                                               ; preds = %1
  store i32 1, ptr %4, align 4
  br label %32

11:                                               ; preds = %1
  call void @llvm.lifetime.start.p0(i64 8, ptr %5) #7
  store i64 0, ptr %5, align 8, !tbaa !43
  br label %12

12:                                               ; preds = %25, %11
  %13 = load i64, ptr %5, align 8, !tbaa !43
  %14 = load ptr, ptr %3, align 8, !tbaa !39
  %15 = getelementptr inbounds nuw %struct.AVFilterChain, ptr %14, i32 0, i32 1
  %16 = load i64, ptr %15, align 8, !tbaa !65
  %17 = icmp ult i64 %13, %16
  br i1 %17, label %19, label %18

18:                                               ; preds = %12
  store i32 2, ptr %4, align 4
  call void @llvm.lifetime.end.p0(i64 8, ptr %5) #7
  br label %28

19:                                               ; preds = %12
  %20 = load ptr, ptr %3, align 8, !tbaa !39
  %21 = getelementptr inbounds nuw %struct.AVFilterChain, ptr %20, i32 0, i32 0
  %22 = load ptr, ptr %21, align 8, !tbaa !68
  %23 = load i64, ptr %5, align 8, !tbaa !43
  %24 = getelementptr inbounds nuw ptr, ptr %22, i64 %23
  call void @filter_params_free(ptr noundef %24)
  br label %25

25:                                               ; preds = %19
  %26 = load i64, ptr %5, align 8, !tbaa !43
  %27 = add i64 %26, 1
  store i64 %27, ptr %5, align 8, !tbaa !43
  br label %12, !llvm.loop !69

28:                                               ; preds = %18
  %29 = load ptr, ptr %3, align 8, !tbaa !39
  %30 = getelementptr inbounds nuw %struct.AVFilterChain, ptr %29, i32 0, i32 0
  call void @av_freep(ptr noundef %30)
  %31 = load ptr, ptr %2, align 8, !tbaa !64
  call void @av_freep(ptr noundef %31)
  store i32 0, ptr %4, align 4
  br label %32

32:                                               ; preds = %28, %10
  call void @llvm.lifetime.end.p0(i64 8, ptr %3) #7
  %33 = load i32, ptr %4, align 4
  switch i32 %33, label %35 [
    i32 0, label %34
    i32 1, label %34
  ]

34:                                               ; preds = %32, %32
  ret void

35:                                               ; preds = %32
  unreachable
}

; Function Attrs: nounwind uwtable
define void @avfilter_graph_segment_free(ptr noundef %0) #0 {
  %2 = alloca ptr, align 8
  %3 = alloca ptr, align 8
  %4 = alloca i32, align 4
  %5 = alloca i64, align 8
  store ptr %0, ptr %2, align 8, !tbaa !32
  call void @llvm.lifetime.start.p0(i64 8, ptr %3) #7
  %6 = load ptr, ptr %2, align 8, !tbaa !32
  %7 = load ptr, ptr %6, align 8, !tbaa !23
  store ptr %7, ptr %3, align 8, !tbaa !23
  %8 = load ptr, ptr %3, align 8, !tbaa !23
  %9 = icmp ne ptr %8, null
  br i1 %9, label %11, label %10

10:                                               ; preds = %1
  store i32 1, ptr %4, align 4
  br label %34

11:                                               ; preds = %1
  call void @llvm.lifetime.start.p0(i64 8, ptr %5) #7
  store i64 0, ptr %5, align 8, !tbaa !43
  br label %12

12:                                               ; preds = %25, %11
  %13 = load i64, ptr %5, align 8, !tbaa !43
  %14 = load ptr, ptr %3, align 8, !tbaa !23
  %15 = getelementptr inbounds nuw %struct.AVFilterGraphSegment, ptr %14, i32 0, i32 2
  %16 = load i64, ptr %15, align 8, !tbaa !41
  %17 = icmp ult i64 %13, %16
  br i1 %17, label %19, label %18

18:                                               ; preds = %12
  store i32 2, ptr %4, align 4
  call void @llvm.lifetime.end.p0(i64 8, ptr %5) #7
  br label %28

19:                                               ; preds = %12
  %20 = load ptr, ptr %3, align 8, !tbaa !23
  %21 = getelementptr inbounds nuw %struct.AVFilterGraphSegment, ptr %20, i32 0, i32 1
  %22 = load ptr, ptr %21, align 8, !tbaa !44
  %23 = load i64, ptr %5, align 8, !tbaa !43
  %24 = getelementptr inbounds nuw ptr, ptr %22, i64 %23
  call void @chain_free(ptr noundef %24)
  br label %25

25:                                               ; preds = %19
  %26 = load i64, ptr %5, align 8, !tbaa !43
  %27 = add i64 %26, 1
  store i64 %27, ptr %5, align 8, !tbaa !43
  br label %12, !llvm.loop !45

28:                                               ; preds = %18
  %29 = load ptr, ptr %3, align 8, !tbaa !23
  %30 = getelementptr inbounds nuw %struct.AVFilterGraphSegment, ptr %29, i32 0, i32 1
  call void @av_freep(ptr noundef %30)
  %31 = load ptr, ptr %3, align 8, !tbaa !23
  %32 = getelementptr inbounds nuw %struct.AVFilterGraphSegment, ptr %31, i32 0, i32 3
  call void @av_freep(ptr noundef %32)
  %33 = load ptr, ptr %2, align 8, !tbaa !32
  call void @av_freep(ptr noundef %33)
  store i32 0, ptr %4, align 4
  br label %34

34:                                               ; preds = %28, %10
  call void @llvm.lifetime.end.p0(i64 8, ptr %3) #7
  %35 = load i32, ptr %4, align 4
  switch i32 %35, label %37 [
    i32 0, label %36
    i32 1, label %36
  ]

36:                                               ; preds = %34, %34
  ret void

37:                                               ; preds = %34
  unreachable
}