; Function Attrs: nounwind uwtable
define void @avfilter_graph_segment_free(ptr noundef %0) local_unnamed_addr #0 {
  %2 = load ptr, ptr %0, align 8, !tbaa !16
  %.not = icmp eq ptr %2, null
  br i1 %.not, label %54, label %.preheader

.preheader:                                       ; preds = %1
  %3 = getelementptr inbounds nuw i8, ptr %2, i64 16
  %4 = load i64, ptr %3, align 8, !tbaa !34
  %.not15 = icmp eq i64 %4, 0
  br i1 %.not15, label %._crit_edge, label %.lr.ph

.lr.ph:                                           ; preds = %.preheader
  %5 = getelementptr inbounds nuw i8, ptr %2, i64 8
  br label %8

._crit_edge:                                      ; preds = %chain_free.exit, %.preheader
  %6 = getelementptr inbounds nuw i8, ptr %2, i64 8
  tail call void @av_freep(ptr noundef nonnull %6) #7
  %7 = getelementptr inbounds nuw i8, ptr %2, i64 24
  tail call void @av_freep(ptr noundef nonnull %7) #7
  tail call void @av_freep(ptr noundef nonnull %0) #7
  br label %54

8:                                                ; preds = %.lr.ph, %chain_free.exit
  %9 = phi i64 [ %4, %.lr.ph ], [ %51, %chain_free.exit ]
  %.014 = phi i64 [ 0, %.lr.ph ], [ %52, %chain_free.exit ]
  %10 = load ptr, ptr %5, align 8, !tbaa !52
  %11 = getelementptr inbounds nuw ptr, ptr %10, i64 %.014
  %12 = load ptr, ptr %11, align 8, !tbaa !35
  %.not.i = icmp eq ptr %12, null
  br i1 %.not.i, label %chain_free.exit, label %.preheader.i

.preheader.i:                                     ; preds = %8
  %13 = getelementptr inbounds nuw i8, ptr %12, i64 8
  %14 = load i64, ptr %13, align 8, !tbaa !47
  %.not10.i = icmp eq i64 %14, 0
  br i1 %.not10.i, label %._crit_edge.i, label %.lr.ph.i

._crit_edge.i:                                    ; preds = %filter_params_free.exit, %.preheader.i
  tail call void @av_freep(ptr noundef nonnull %12) #7
  tail call void @av_freep(ptr noundef nonnull %11) #7
  %.pre16 = load i64, ptr %3, align 8, !tbaa !34
  br label %chain_free.exit

.lr.ph.i:                                         ; preds = %.preheader.i, %filter_params_free.exit
  %15 = phi i64 [ %48, %filter_params_free.exit ], [ %14, %.preheader.i ]
  %.09.i = phi i64 [ %49, %filter_params_free.exit ], [ 0, %.preheader.i ]
  %16 = load ptr, ptr %12, align 8, !tbaa !50
  %17 = getelementptr inbounds nuw ptr, ptr %16, i64 %.09.i
  %18 = load ptr, ptr %17, align 8, !tbaa !37
  %.not.i10 = icmp eq ptr %18, null
  br i1 %.not.i10, label %filter_params_free.exit, label %.preheader.i11

.preheader.i11:                                   ; preds = %.lr.ph.i
  %19 = getelementptr inbounds nuw i8, ptr %18, i64 40
  %20 = load i32, ptr %19, align 8, !tbaa !71
  %.not26.i = icmp eq i32 %20, 0
  br i1 %.not26.i, label %._crit_edge.i13, label %.lr.ph.i12

.lr.ph.i12:                                       ; preds = %.preheader.i11
  %21 = getelementptr inbounds nuw i8, ptr %18, i64 32
  br label %26

._crit_edge.i13:                                  ; preds = %pad_params_free.exit.i, %.preheader.i11
  %22 = getelementptr inbounds nuw i8, ptr %18, i64 32
  tail call void @av_freep(ptr noundef nonnull %22) #7
  %23 = getelementptr inbounds nuw i8, ptr %18, i64 56
  %24 = load i32, ptr %23, align 8, !tbaa !72
  %.not27.i = icmp eq i32 %24, 0
  br i1 %.not27.i, label %._crit_edge25.i, label %.lr.ph24.i

.lr.ph24.i:                                       ; preds = %._crit_edge.i13
  %25 = getelementptr inbounds nuw i8, ptr %18, i64 48
  br label %39

26:                                               ; preds = %pad_params_free.exit.i, %.lr.ph.i12
  %27 = phi i32 [ %20, %.lr.ph.i12 ], [ %32, %pad_params_free.exit.i ]
  %indvars.iv.i = phi i64 [ 0, %.lr.ph.i12 ], [ %indvars.iv.next.i, %pad_params_free.exit.i ]
  %28 = load ptr, ptr %21, align 8, !tbaa !73
  %29 = getelementptr inbounds nuw ptr, ptr %28, i64 %indvars.iv.i
  %30 = load ptr, ptr %29, align 8, !tbaa !74
  %.not.i.i = icmp eq ptr %30, null
  br i1 %.not.i.i, label %pad_params_free.exit.i, label %31

31:                                               ; preds = %26
  tail call void @av_freep(ptr noundef nonnull %30) #7
  tail call void @av_freep(ptr noundef nonnull %29) #7
  %.pre.i = load i32, ptr %19, align 8, !tbaa !71
  br label %pad_params_free.exit.i

pad_params_free.exit.i:                           ; preds = %31, %26
  %32 = phi i32 [ %27, %26 ], [ %.pre.i, %31 ]
  %indvars.iv.next.i = add nuw nsw i64 %indvars.iv.i, 1
  %33 = zext i32 %32 to i64
  %34 = icmp samesign ult i64 %indvars.iv.next.i, %33
  br i1 %34, label %26, label %._crit_edge.i13, !llvm.loop !76

._crit_edge25.i:                                  ; preds = %pad_params_free.exit20.i, %._crit_edge.i13
  %35 = getelementptr inbounds nuw i8, ptr %18, i64 48
  tail call void @av_freep(ptr noundef nonnull %35) #7
  %36 = getelementptr inbounds nuw i8, ptr %18, i64 24
  tail call void @av_dict_free(ptr noundef nonnull %36) #7
  %37 = getelementptr inbounds nuw i8, ptr %18, i64 8
  tail call void @av_freep(ptr noundef nonnull %37) #7
  %38 = getelementptr inbounds nuw i8, ptr %18, i64 16
  tail call void @av_freep(ptr noundef nonnull %38) #7
  tail call void @av_freep(ptr noundef nonnull %17) #7
  %.pre = load i64, ptr %13, align 8, !tbaa !47
  br label %filter_params_free.exit

39:                                               ; preds = %pad_params_free.exit20.i, %.lr.ph24.i
  %40 = phi i32 [ %24, %.lr.ph24.i ], [ %45, %pad_params_free.exit20.i ]
  %indvars.iv29.i = phi i64 [ 0, %.lr.ph24.i ], [ %indvars.iv.next30.i, %pad_params_free.exit20.i ]
  %41 = load ptr, ptr %25, align 8, !tbaa !77
  %42 = getelementptr inbounds nuw ptr, ptr %41, i64 %indvars.iv29.i
  %43 = load ptr, ptr %42, align 8, !tbaa !74
  %.not.i19.i = icmp eq ptr %43, null
  br i1 %.not.i19.i, label %pad_params_free.exit20.i, label %44

44:                                               ; preds = %39
  tail call void @av_freep(ptr noundef nonnull %43) #7
  tail call void @av_freep(ptr noundef nonnull %42) #7
  %.pre32.i = load i32, ptr %23, align 8, !tbaa !72
  br label %pad_params_free.exit20.i

pad_params_free.exit20.i:                         ; preds = %44, %39
  %45 = phi i32 [ %40, %39 ], [ %.pre32.i, %44 ]
  %indvars.iv.next30.i = add nuw nsw i64 %indvars.iv29.i, 1
  %46 = zext i32 %45 to i64
  %47 = icmp samesign ult i64 %indvars.iv.next30.i, %46
  br i1 %47, label %39, label %._crit_edge25.i, !llvm.loop !78

filter_params_free.exit:                          ; preds = %.lr.ph.i, %._crit_edge25.i
  %48 = phi i64 [ %15, %.lr.ph.i ], [ %.pre, %._crit_edge25.i ]
  %49 = add nuw i64 %.09.i, 1
  %50 = icmp ult i64 %49, %48
  br i1 %50, label %.lr.ph.i, label %._crit_edge.i, !llvm.loop !51

chain_free.exit:                                  ; preds = %8, %._crit_edge.i
  %51 = phi i64 [ %9, %8 ], [ %.pre16, %._crit_edge.i ]
  %52 = add nuw i64 %.014, 1
  %53 = icmp ult i64 %52, %51
  br i1 %53, label %8, label %._crit_edge, !llvm.loop !79

54:                                               ; preds = %1, %._crit_edge
  ret void
}